target datalayout = "e-m:e-p270:32:32-p271:32:32-p272:64:64-i64:64-i128:128-f80:128-n8:16:32:64-S128"
target triple = "x86_64-unknown-linux-gnu"

%struct.grpc_resolved_address = type { [128 x i8], i32 }
%"class.absl::lts_20230802::Status" = type { i64 }

; Function Attrs: mustprogress nounwind uwtable
define linkonce_odr noundef i64 @_ZN4absl12lts_202308026Status12MovedFromRepEv() #5 comdat align 2 {
entry:
  %call = call noundef i64 @_ZN4absl12lts_202308026Status16CodeToInlinedRepENS0_10StatusCodeE(i32 noundef 13)
  %or = or i64 %call, 2
  ret i64 %or
}

; Function Attrs: mustprogress nounwind uwtable
define linkonce_odr noundef i64 @_ZN4absl12lts_202308026Status16CodeToInlinedRepENS0_10StatusCodeE(i32 noundef %code) #5 comdat align 2 {
entry:
  %code.addr = alloca i32, align 4
  store i32 %code, ptr %code.addr, align 4
  %0 = load i32, ptr %code.addr, align 4
  %conv = sext i32 %0 to i64
  %shl = shl i64 %conv, 2
  ret i64 %shl
}

; Function Attrs: mustprogress nounwind uwtable
define linkonce_odr void @_ZN4absl12lts_202308026StatusC2EOS1_(ptr noundef nonnull align 8 dereferenceable(8) %this, ptr noundef nonnull align 8 dereferenceable(8) %x) unnamed_addr #5 comdat align 2 personality ptr @__gxx_personality_v0 {
entry:
  %this.addr = alloca ptr, align 8
  %x.addr = alloca ptr, align 8
  store ptr %this, ptr %this.addr, align 8
  store ptr %x, ptr %x.addr, align 8
  %this1 = load ptr, ptr %this.addr, align 8
  %rep_ = getelementptr inbounds %"class.absl::lts_20230802::Status", ptr %this1, i32 0, i32 0
  %0 = load ptr, ptr %x.addr, align 8
  %rep_2 = getelementptr inbounds %"class.absl::lts_20230802::Status", ptr %0, i32 0, i32 0
  %1 = load i64, ptr %rep_2, align 8
  store i64 %1, ptr %rep_, align 8
  %call = invoke noundef i64 @_ZN4absl12lts_202308026Status12MovedFromRepEv()
          to label %invoke.cont unwind label %terminate.lpad

invoke.cont:                                      ; preds = %entry
  %2 = load ptr, ptr %x.addr, align 8
  %rep_3 = getelementptr inbounds %"class.absl::lts_20230802::Status", ptr %2, i32 0, i32 0
  store i64 %call, ptr %rep_3, align 8
  ret void

terminate.lpad:                                   ; preds = %entry
  %3 = landingpad { ptr, i32 }
          catch ptr null
  %4 = extractvalue { ptr, i32 } %3, 0
  call void @__clang_call_terminate(ptr %4) #13
  unreachable
}

; Function Attrs: mustprogress uwtable
define linkonce_odr noundef zeroext i1 @_ZNK4absl12lts_202308026Status2okEv(ptr noundef nonnull align 8 dereferenceable(8) %this) #4 comdat align 2 {
entry:
  %this.addr = alloca ptr, align 8
  store ptr %this, ptr %this.addr, align 8
  %this1 = load ptr, ptr %this.addr, align 8
  %rep_ = getelementptr inbounds %"class.absl::lts_20230802::Status", ptr %this1, i32 0, i32 0
  %0 = load i64, ptr %rep_, align 8
  %call = call noundef i64 @_ZN4absl12lts_202308026Status16CodeToInlinedRepENS0_10StatusCodeE(i32 noundef 0)
  %cmp = icmp eq i64 %0, %call
  ret i1 %cmp
}

; Function Attrs: mustprogress uwtable
define void @_Z24grpc_tcp_server_add_addrP15grpc_tcp_serverPK21grpc_resolved_addressjjP19grpc_dualstack_modePP17grpc_tcp_listener(ptr noalias sret(%"class.absl::lts_20230802::Status") align 8 %agg.result, ptr noundef %s, ptr noundef %addr, i32 noundef %port_index, i32 noundef %fd_index, ptr noundef %dsmode, ptr noundef %listener) #4 personality ptr @__gxx_personality_v0 {
entry:
  %result.ptr = alloca ptr, align 8
  %s.addr = alloca ptr, align 8
  %addr.addr = alloca ptr, align 8
  %port_index.addr = alloca i32, align 4
  %fd_index.addr = alloca i32, align 4
  %dsmode.addr = alloca ptr, align 8
  %listener.addr = alloca ptr, align 8
  %fd = alloca i32, align 4
  %family = alloca i32, align 4
  %off = alloca i32, align 4
  %addr4_copy = alloca %struct.grpc_resolved_address, align 4
  %addr4_copy20 = alloca %struct.grpc_resolved_address, align 4
  %err = alloca %"class.absl::lts_20230802::Status", align 8
  %exn.slot = alloca ptr, align 8
  %ehselector.slot = alloca i32, align 4
  %cleanup.dest.slot = alloca i32, align 4
  store ptr %agg.result, ptr %result.ptr, align 8
  store ptr %s, ptr %s.addr, align 8
  store ptr %addr, ptr %addr.addr, align 8
  store i32 %port_index, ptr %port_index.addr, align 4
  store i32 %fd_index, ptr %fd_index.addr, align 4
  store ptr %dsmode, ptr %dsmode.addr, align 8
  store ptr %listener, ptr %listener.addr, align 8
  %0 = load ptr, ptr %s.addr, align 8
  %call = call noundef i32 @_Z32grpc_tcp_server_pre_allocated_fdP15grpc_tcp_server(ptr noundef %0)
  store i32 %call, ptr %fd, align 4
  %1 = load i32, ptr %fd, align 4
  %cmp = icmp sgt i32 %1, 0
  br i1 %cmp, label %if.then, label %if.end19

if.then:                                          ; preds = %entry
  %2 = load ptr, ptr %addr.addr, align 8
  %call1 = call noundef i32 @_Z24grpc_sockaddr_get_familyPK21grpc_resolved_address(ptr noundef %2)
  store i32 %call1, ptr %family, align 4
  %3 = load i32, ptr %family, align 4
  %cmp2 = icmp eq i32 %3, 10
  br i1 %cmp2, label %if.then3, label %if.else11

if.then3:                                         ; preds = %if.then
  store i32 0, ptr %off, align 4
  %4 = load i32, ptr %fd, align 4
  %call4 = call i32 @setsockopt(i32 noundef %4, i32 noundef 0, i32 noundef 26, ptr noundef %off, i32 noundef 4) #3
  %cmp5 = icmp eq i32 %call4, 0
  br i1 %cmp5, label %if.then6, label %if.else

if.then6:                                         ; preds = %if.then3
  %5 = load ptr, ptr %dsmode.addr, align 8
  store i32 3, ptr %5, align 4
  br label %if.end10

if.else:                                          ; preds = %if.then3
  %6 = load ptr, ptr %addr.addr, align 8
  %call7 = call noundef i32 @_Z25grpc_sockaddr_is_v4mappedPK21grpc_resolved_addressPS_(ptr noundef %6, ptr noundef null)
  %tobool = icmp ne i32 %call7, 0
  br i1 %tobool, label %if.else9, label %if.then8

if.then8:                                         ; preds = %if.else
  %7 = load ptr, ptr %dsmode.addr, align 8
  store i32 2, ptr %7, align 4
  br label %if.end

if.else9:                                         ; preds = %if.else
  %8 = load ptr, ptr %dsmode.addr, align 8
  store i32 1, ptr %8, align 4
  br label %if.end

if.end:                                           ; preds = %if.else9, %if.then8
  br label %if.end10

if.end10:                                         ; preds = %if.end, %if.then6
  br label %if.end13

if.else11:                                        ; preds = %if.then
  %9 = load i32, ptr %family, align 4
  %cmp12 = icmp eq i32 %9, 2
  %cond = select i1 %cmp12, i32 1, i32 0
  %10 = load ptr, ptr %dsmode.addr, align 8
  store i32 %cond, ptr %10, align 4
  br label %if.end13

if.end13:                                         ; preds = %if.else11, %if.end10
  %11 = load ptr, ptr %dsmode.addr, align 8
  %12 = load i32, ptr %11, align 4
  %cmp14 = icmp eq i32 %12, 1
  br i1 %cmp14, label %land.lhs.true, label %if.end18

land.lhs.true:                                    ; preds = %if.end13
  %13 = load ptr, ptr %addr.addr, align 8
  %call15 = call noundef i32 @_Z25grpc_sockaddr_is_v4mappedPK21grpc_resolved_addressPS_(ptr noundef %13, ptr noundef %addr4_copy)
  %tobool16 = icmp ne i32 %call15, 0
  br i1 %tobool16, label %if.then17, label %if.end18

if.then17:                                        ; preds = %land.lhs.true
  store ptr %addr4_copy, ptr %addr.addr, align 8
  br label %if.end18

if.end18:                                         ; preds = %if.then17, %land.lhs.true, %if.end13
  %14 = load ptr, ptr %s.addr, align 8
  %15 = load i32, ptr %fd, align 4
  %16 = load ptr, ptr %addr.addr, align 8
  %17 = load i32, ptr %port_index.addr, align 4
  %18 = load i32, ptr %fd_index.addr, align 4
  %19 = load ptr, ptr %listener.addr, align 8
  call void @_ZL20add_socket_to_serverP15grpc_tcp_serveriPK21grpc_resolved_addressjjPP17grpc_tcp_listener(ptr sret(%"class.absl::lts_20230802::Status") align 8 %agg.result, ptr noundef %14, i32 noundef %15, ptr noundef %16, i32 noundef %17, i32 noundef %18, ptr noundef %19)
  br label %return

if.end19:                                         ; preds = %entry
  %20 = load ptr, ptr %addr.addr, align 8
  %21 = load ptr, ptr %dsmode.addr, align 8
  call void @_Z28grpc_create_dualstack_socketPK21grpc_resolved_addressiiP19grpc_dualstack_modePi(ptr sret(%"class.absl::lts_20230802::Status") align 8 %err, ptr noundef %20, i32 noundef 1, i32 noundef 0, ptr noundef %21, ptr noundef %fd)
  %call21 = invoke noundef zeroext i1 @_ZNK4absl12lts_202308026Status2okEv(ptr noundef nonnull align 8 dereferenceable(8) %err)
          to label %invoke.cont unwind label %lpad

invoke.cont:                                      ; preds = %if.end19
  br i1 %call21, label %if.end23, label %if.then22

if.then22:                                        ; preds = %invoke.cont
  call void @_ZN4absl12lts_202308026StatusC2EOS1_(ptr noundef nonnull align 8 dereferenceable(8) %agg.result, ptr noundef nonnull align 8 dereferenceable(8) %err) #3
  store i32 1, ptr %cleanup.dest.slot, align 4
  br label %cleanup

lpad:                                             ; preds = %if.end30, %land.lhs.true25, %if.end19
  %22 = landingpad { ptr, i32 }
          cleanup
  %23 = extractvalue { ptr, i32 } %22, 0
  store ptr %23, ptr %exn.slot, align 8
  %24 = extractvalue { ptr, i32 } %22, 1
  store i32 %24, ptr %ehselector.slot, align 4
  call void @_ZN4absl12lts_202308026StatusD2Ev(ptr noundef nonnull align 8 dereferenceable(8) %err) #3
  br label %eh.resume

if.end23:                                         ; preds = %invoke.cont
  %25 = load ptr, ptr %dsmode.addr, align 8
  %26 = load i32, ptr %25, align 4
  %cmp24 = icmp eq i32 %26, 1
  br i1 %cmp24, label %land.lhs.true25, label %if.end30

land.lhs.true25:                                  ; preds = %if.end23
  %27 = load ptr, ptr %addr.addr, align 8
  %call27 = invoke noundef i32 @_Z25grpc_sockaddr_is_v4mappedPK21grpc_resolved_addressPS_(ptr noundef %27, ptr noundef %addr4_copy20)
          to label %invoke.cont26 unwind label %lpad

invoke.cont26:                                    ; preds = %land.lhs.true25
  %tobool28 = icmp ne i32 %call27, 0
  br i1 %tobool28, label %if.then29, label %if.end30

if.then29:                                        ; preds = %invoke.cont26
  store ptr %addr4_copy20, ptr %addr.addr, align 8
  br label %if.end30

if.end30:                                         ; preds = %if.then29, %invoke.cont26, %if.end23
  %28 = load ptr, ptr %s.addr, align 8
  %29 = load i32, ptr %fd, align 4
  %30 = load ptr, ptr %addr.addr, align 8
  %31 = load i32, ptr %port_index.addr, align 4
  %32 = load i32, ptr %fd_index.addr, align 4
  %33 = load ptr, ptr %listener.addr, align 8
  invoke void @_ZL20add_socket_to_serverP15grpc_tcp_serveriPK21grpc_resolved_addressjjPP17grpc_tcp_listener(ptr sret(%"class.absl::lts_20230802::Status") align 8 %agg.result, ptr noundef %28, i32 noundef %29, ptr noundef %30, i32 noundef %31, i32 noundef %32, ptr noundef %33)
          to label %invoke.cont31 unwind label %lpad

invoke.cont31:                                    ; preds = %if.end30
  store i32 1, ptr %cleanup.dest.slot, align 4
  br label %cleanup

cleanup:                                          ; preds = %invoke.cont31, %if.then22
  call void @_ZN4absl12lts_202308026StatusD2Ev(ptr noundef nonnull align 8 dereferenceable(8) %err) #3
  br label %return

return:                                           ; preds = %cleanup, %if.end18
  ret void

eh.resume:                                        ; preds = %lpad
  %exn = load ptr, ptr %exn.slot, align 8
  %sel = load i32, ptr %ehselector.slot, align 4
  %lpad.val = insertvalue { ptr, i32 } poison, ptr %exn, 0
  %lpad.val32 = insertvalue { ptr, i32 } %lpad.val, i32 %sel, 1
  resume { ptr, i32 } %lpad.val32
}