; Function Attrs: mustprogress uwtable
define void @_Z24grpc_tcp_server_add_addrP15grpc_tcp_serverPK21grpc_resolved_addressjjP19grpc_dualstack_modePP17grpc_tcp_listener(ptr noalias sret(%"class.absl::lts_20230802::Status") align 8 %agg.result, ptr noundef %s, ptr noundef %addr, i32 noundef %port_index, i32 noundef %fd_index, ptr noundef %dsmode, ptr nocapture noundef writeonly %listener) local_unnamed_addr #3 personality ptr @__gxx_personality_v0 {
entry:
  %fd = alloca i32, align 4
  %off = alloca i32, align 4
  %addr4_copy = alloca %struct.grpc_resolved_address, align 4
  %addr4_copy20 = alloca %struct.grpc_resolved_address, align 4
  %err = alloca %"class.absl::lts_20230802::Status", align 8
  %call = tail call noundef i32 @_Z32grpc_tcp_server_pre_allocated_fdP15grpc_tcp_server(ptr noundef %s)
  store i32 %call, ptr %fd, align 4
  %cmp = icmp sgt i32 %call, 0
  br i1 %cmp, label %if.then, label %invoke.cont

if.then:                                          ; preds = %entry
  %call1 = tail call noundef i32 @_Z24grpc_sockaddr_get_familyPK21grpc_resolved_address(ptr noundef %addr)
  %cmp2 = icmp eq i32 %call1, 10
  br i1 %cmp2, label %if.then3, label %if.end13

if.then3:                                         ; preds = %if.then
  store i32 0, ptr %off, align 4
  %call4 = call i32 @setsockopt(i32 noundef %call, i32 noundef 0, i32 noundef 26, ptr noundef nonnull %off, i32 noundef 4) #16
  %cmp5 = icmp eq i32 %call4, 0
  br i1 %cmp5, label %if.then6, label %if.else

if.then6:                                         ; preds = %if.then3
  store i32 3, ptr %dsmode, align 4
  br label %if.end18

if.else:                                          ; preds = %if.then3
  %call7 = call noundef i32 @_Z25grpc_sockaddr_is_v4mappedPK21grpc_resolved_addressPS_(ptr noundef %addr, ptr noundef null)
  %tobool.not = icmp eq i32 %call7, 0
  br i1 %tobool.not, label %if.then8, label %if.end13.thread21

if.then8:                                         ; preds = %if.else
  store i32 2, ptr %dsmode, align 4
  br label %if.end18

if.end13.thread21:                                ; preds = %if.else
  store i32 1, ptr %dsmode, align 4
  br label %land.lhs.true

if.end13:                                         ; preds = %if.then
  %cmp12 = icmp eq i32 %call1, 2
  %cond = zext i1 %cmp12 to i32
  store i32 %cond, ptr %dsmode, align 4
  br i1 %cmp12, label %land.lhs.true, label %if.end18

land.lhs.true:                                    ; preds = %if.end13.thread21, %if.end13
  %call15 = call noundef i32 @_Z25grpc_sockaddr_is_v4mappedPK21grpc_resolved_addressPS_(ptr noundef %addr, ptr noundef nonnull %addr4_copy)
  %tobool16.not = icmp eq i32 %call15, 0
  %spec.select = select i1 %tobool16.not, ptr %addr, ptr %addr4_copy
  br label %if.end18

if.end18:                                         ; preds = %if.then8, %if.then6, %land.lhs.true, %if.end13
  %addr.addr.0 = phi ptr [ %addr, %if.end13 ], [ %spec.select, %land.lhs.true ], [ %addr, %if.then6 ], [ %addr, %if.then8 ]
  call fastcc void @_ZL20add_socket_to_serverP15grpc_tcp_serveriPK21grpc_resolved_addressjjPP17grpc_tcp_listener(ptr noalias align 8 %agg.result, ptr noundef %s, i32 noundef %call, ptr noundef %addr.addr.0, i32 noundef %port_index, i32 noundef %fd_index, ptr noundef %listener)
  br label %return

invoke.cont:                                      ; preds = %entry
  call void @_Z28grpc_create_dualstack_socketPK21grpc_resolved_addressiiP19grpc_dualstack_modePi(ptr nonnull sret(%"class.absl::lts_20230802::Status") align 8 %err, ptr noundef %addr, i32 noundef 1, i32 noundef 0, ptr noundef %dsmode, ptr noundef nonnull %fd)
  %0 = load i64, ptr %err, align 8
  %cmp.i = icmp eq i64 %0, 0
  br i1 %cmp.i, label %if.end23, label %cleanup.thread

cleanup.thread:                                   ; preds = %invoke.cont
  store i64 %0, ptr %agg.result, align 8
  br label %return

lpad:                                             ; preds = %if.end30, %land.lhs.true25
  %1 = landingpad { ptr, i32 }
          cleanup
  call void @_ZN4absl12lts_202308026StatusD2Ev(ptr noundef nonnull align 8 dereferenceable(8) %err) #16
  resume { ptr, i32 } %1

if.end23:                                         ; preds = %invoke.cont
  %2 = load i32, ptr %dsmode, align 4
  %cmp24 = icmp eq i32 %2, 1
  br i1 %cmp24, label %land.lhs.true25, label %if.end30

land.lhs.true25:                                  ; preds = %if.end23
  %call27 = invoke noundef i32 @_Z25grpc_sockaddr_is_v4mappedPK21grpc_resolved_addressPS_(ptr noundef %addr, ptr noundef nonnull %addr4_copy20)
          to label %invoke.cont26 unwind label %lpad

invoke.cont26:                                    ; preds = %land.lhs.true25
  %tobool28.not = icmp eq i32 %call27, 0
  %spec.select19 = select i1 %tobool28.not, ptr %addr, ptr %addr4_copy20
  br label %if.end30

if.end30:                                         ; preds = %invoke.cont26, %if.end23
  %addr.addr.1 = phi ptr [ %addr, %if.end23 ], [ %spec.select19, %invoke.cont26 ]
  %3 = load i32, ptr %fd, align 4
  invoke fastcc void @_ZL20add_socket_to_serverP15grpc_tcp_serveriPK21grpc_resolved_addressjjPP17grpc_tcp_listener(ptr noalias align 8 %agg.result, ptr noundef %s, i32 noundef %3, ptr noundef %addr.addr.1, i32 noundef %port_index, i32 noundef %fd_index, ptr noundef %listener)
          to label %cleanup unwind label %lpad

cleanup:                                          ; preds = %if.end30
  %.pre = load i64, ptr %err, align 8
  %and.i.i.i = and i64 %.pre, 1
  %cmp.i.i.i = icmp eq i64 %and.i.i.i, 0
  br i1 %cmp.i.i.i, label %return, label %if.then.i.i

if.then.i.i:                                      ; preds = %cleanup
  invoke void @_ZN4absl12lts_202308026Status15UnrefNonInlinedEm(i64 noundef %.pre)
          to label %return unwind label %terminate.lpad.i

terminate.lpad.i:                                 ; preds = %if.then.i.i
  %4 = landingpad { ptr, i32 }
          catch ptr null
  %5 = extractvalue { ptr, i32 } %4, 0
  call void @__clang_call_terminate(ptr %5) #17
  unreachable

return:                                           ; preds = %cleanup.thread, %if.then.i.i, %cleanup, %if.end18
  ret void
}